
main.elf:     file format elf32-littleriscv


Disassembly of section .text:

00000000 <_isr_handler>:
       0:	0080006f          	j	8 <_isr_routine>
       4:	1440006f          	j	148 <_start>

00000008 <_isr_routine>:
       8:	f8010113          	addi	sp,sp,-128
       c:	00112023          	sw	ra,0(sp)
      10:	00312423          	sw	gp,8(sp)
      14:	00412623          	sw	tp,12(sp)
      18:	00512823          	sw	t0,16(sp)
      1c:	00612a23          	sw	t1,20(sp)
      20:	00712c23          	sw	t2,24(sp)
      24:	00812e23          	sw	s0,28(sp)
      28:	02912023          	sw	s1,32(sp)
      2c:	02a12223          	sw	a0,36(sp)
      30:	02b12423          	sw	a1,40(sp)
      34:	02c12623          	sw	a2,44(sp)
      38:	02d12823          	sw	a3,48(sp)
      3c:	02e12a23          	sw	a4,52(sp)
      40:	02f12c23          	sw	a5,56(sp)
      44:	03012e23          	sw	a6,60(sp)
      48:	05112023          	sw	a7,64(sp)
      4c:	05212223          	sw	s2,68(sp)
      50:	05312423          	sw	s3,72(sp)
      54:	05412623          	sw	s4,76(sp)
      58:	05512823          	sw	s5,80(sp)
      5c:	05612a23          	sw	s6,84(sp)
      60:	05712c23          	sw	s7,88(sp)
      64:	05812e23          	sw	s8,92(sp)
      68:	07912023          	sw	s9,96(sp)
      6c:	07a12223          	sw	s10,100(sp)
      70:	07b12423          	sw	s11,104(sp)
      74:	07c12623          	sw	t3,108(sp)
      78:	07d12823          	sw	t4,112(sp)
      7c:	07e12a23          	sw	t5,116(sp)
      80:	07f12c23          	sw	t6,120(sp)
      84:	342022f3          	csrr	t0,mcause
      88:	80000337          	lui	t1,0x80000
      8c:	02536463          	bltu	t1,t0,b4 <external_irq>
      90:	00028833          	add	a6,t0,zero
      94:	00b00313          	li	t1,11
      98:	00628463          	beq	t0,t1,a0 <skip_init_args>
      9c:	34102573          	csrr	a0,mepc

000000a0 <skip_init_args>:
      a0:	268000ef          	jal	308 <handle_exception>
      a4:	341022f3          	csrr	t0,mepc
      a8:	00428293          	addi	t0,t0,4
      ac:	34129073          	csrw	mepc,t0
      b0:	0180006f          	j	c8 <restore>

000000b4 <external_irq>:
      b4:	800002b7          	lui	t0,0x80000
      b8:	fff28293          	addi	t0,t0,-1 # 7fffffff <_stack_end+0x7feb265f>
      bc:	34202373          	csrr	t1,mcause
      c0:	0062f533          	and	a0,t0,t1
      c4:	0d4010ef          	jal	1198 <handle_interrupt>

000000c8 <restore>:
      c8:	00012083          	lw	ra,0(sp)
      cc:	00812183          	lw	gp,8(sp)
      d0:	00c12203          	lw	tp,12(sp)
      d4:	01012283          	lw	t0,16(sp)
      d8:	01412303          	lw	t1,20(sp)
      dc:	01812383          	lw	t2,24(sp)
      e0:	01c12403          	lw	s0,28(sp)
      e4:	02012483          	lw	s1,32(sp)
      e8:	02412503          	lw	a0,36(sp)
      ec:	02812583          	lw	a1,40(sp)
      f0:	02c12603          	lw	a2,44(sp)
      f4:	03012683          	lw	a3,48(sp)
      f8:	03412703          	lw	a4,52(sp)
      fc:	03812783          	lw	a5,56(sp)
     100:	03c12803          	lw	a6,60(sp)
     104:	04012883          	lw	a7,64(sp)
     108:	04412903          	lw	s2,68(sp)
     10c:	04812983          	lw	s3,72(sp)
     110:	04c12a03          	lw	s4,76(sp)
     114:	05012a83          	lw	s5,80(sp)
     118:	05412b03          	lw	s6,84(sp)
     11c:	05812b83          	lw	s7,88(sp)
     120:	05c12c03          	lw	s8,92(sp)
     124:	06012c83          	lw	s9,96(sp)
     128:	06412d03          	lw	s10,100(sp)
     12c:	06812d83          	lw	s11,104(sp)
     130:	06c12e03          	lw	t3,108(sp)
     134:	07012e83          	lw	t4,112(sp)
     138:	07412f03          	lw	t5,116(sp)
     13c:	07812f83          	lw	t6,120(sp)
     140:	08010113          	addi	sp,sp,128
     144:	30200073          	mret

00000148 <_start>:
     148:	30401073          	csrw	mie,zero
     14c:	0014e117          	auipc	sp,0x14e
     150:	85410113          	addi	sp,sp,-1964 # 14d9a0 <_stack_end>
     154:	00002197          	auipc	gp,0x2
     158:	f2818193          	addi	gp,gp,-216 # 207c <__global_pointer>
     15c:	00001517          	auipc	a0,0x1
     160:	68c50513          	addi	a0,a0,1676 # 17e8 <welcome_msg>
     164:	00400893          	li	a7,4
     168:	00000073          	ecall
     16c:	660010ef          	jal	17cc <main>

00000170 <enable_interrupt>:
     170:	00000297          	auipc	t0,0x0
     174:	e9028293          	addi	t0,t0,-368 # 0 <_isr_handler>
     178:	30529073          	csrw	mtvec,t0
     17c:	000102b7          	lui	t0,0x10
     180:	3042a073          	csrs	mie,t0
     184:	00800293          	li	t0,8
     188:	3002a073          	csrs	mstatus,t0
     18c:	00008067          	ret

00000190 <loop>:
     190:	0000006f          	j	190 <loop>

00000194 <printc>:
     194:	04000737          	lui	a4,0x4000
     198:	04470713          	addi	a4,a4,68 # 4000044 <_stack_end+0x3eb26a4>
     19c:	000106b7          	lui	a3,0x10
     1a0:	00072783          	lw	a5,0(a4)
     1a4:	fed7eee3          	bltu	a5,a3,1a0 <printc+0xc>
     1a8:	040007b7          	lui	a5,0x4000
     1ac:	04a7a023          	sw	a0,64(a5) # 4000040 <_stack_end+0x3eb26a0>
     1b0:	00008067          	ret

000001b4 <print>:
     1b4:	00054603          	lbu	a2,0(a0)
     1b8:	02060863          	beqz	a2,1e8 <print+0x34>
     1bc:	04000737          	lui	a4,0x4000
     1c0:	040005b7          	lui	a1,0x4000
     1c4:	04470713          	addi	a4,a4,68 # 4000044 <_stack_end+0x3eb26a4>
     1c8:	04058593          	addi	a1,a1,64 # 4000040 <_stack_end+0x3eb26a0>
     1cc:	000106b7          	lui	a3,0x10
     1d0:	00072783          	lw	a5,0(a4)
     1d4:	fed7eee3          	bltu	a5,a3,1d0 <print+0x1c>
     1d8:	00c5a023          	sw	a2,0(a1)
     1dc:	00154603          	lbu	a2,1(a0)
     1e0:	00150513          	addi	a0,a0,1
     1e4:	fe0616e3          	bnez	a2,1d0 <print+0x1c>
     1e8:	00008067          	ret

000001ec <print_dec>:
     1ec:	3b9ad737          	lui	a4,0x3b9ad
     1f0:	040006b7          	lui	a3,0x4000
     1f4:	04000337          	lui	t1,0x4000
     1f8:	ccccd8b7          	lui	a7,0xccccd
     1fc:	a0070713          	addi	a4,a4,-1536 # 3b9aca00 <_stack_end+0x3b85f060>
     200:	04468693          	addi	a3,a3,68 # 4000044 <_stack_end+0x3eb26a4>
     204:	04030313          	addi	t1,t1,64 # 4000040 <_stack_end+0x3eb26a0>
     208:	ccd88893          	addi	a7,a7,-819 # cccccccd <_stack_end+0xccb7f32d>
     20c:	00a00593          	li	a1,10
     210:	00000793          	li	a5,0
     214:	00010637          	lui	a2,0x10
     218:	04e57663          	bgeu	a0,a4,264 <print_dec+0x78>
     21c:	00078813          	mv	a6,a5
     220:	00000793          	li	a5,0
     224:	04081063          	bnez	a6,264 <print_dec+0x78>
     228:	03173833          	mulhu	a6,a4,a7
     22c:	fff58593          	addi	a1,a1,-1
     230:	02e57533          	remu	a0,a0,a4
     234:	00385713          	srli	a4,a6,0x3
     238:	fe0590e3          	bnez	a1,218 <print_dec+0x2c>
     23c:	02079263          	bnez	a5,260 <print_dec+0x74>
     240:	04000737          	lui	a4,0x4000
     244:	04470713          	addi	a4,a4,68 # 4000044 <_stack_end+0x3eb26a4>
     248:	000106b7          	lui	a3,0x10
     24c:	00072783          	lw	a5,0(a4)
     250:	fed7eee3          	bltu	a5,a3,24c <print_dec+0x60>
     254:	040007b7          	lui	a5,0x4000
     258:	03000713          	li	a4,48
     25c:	04e7a023          	sw	a4,64(a5) # 4000040 <_stack_end+0x3eb26a0>
     260:	00008067          	ret
     264:	02e55833          	divu	a6,a0,a4
     268:	03080813          	addi	a6,a6,48
     26c:	0ff87813          	zext.b	a6,a6
     270:	0006a783          	lw	a5,0(a3) # 10000 <__global_pointer+0xdf84>
     274:	fec7eee3          	bltu	a5,a2,270 <print_dec+0x84>
     278:	01032023          	sw	a6,0(t1)
     27c:	00100793          	li	a5,1
     280:	fa9ff06f          	j	228 <print_dec+0x3c>

00000284 <print_hex32>:
     284:	04000737          	lui	a4,0x4000
     288:	04470713          	addi	a4,a4,68 # 4000044 <_stack_end+0x3eb26a4>
     28c:	000106b7          	lui	a3,0x10
     290:	00072783          	lw	a5,0(a4)
     294:	fed7eee3          	bltu	a5,a3,290 <print_hex32+0xc>
     298:	040007b7          	lui	a5,0x4000
     29c:	03000693          	li	a3,48
     2a0:	04d7a023          	sw	a3,64(a5) # 4000040 <_stack_end+0x3eb26a0>
     2a4:	04478713          	addi	a4,a5,68
     2a8:	000106b7          	lui	a3,0x10
     2ac:	00072783          	lw	a5,0(a4)
     2b0:	fed7eee3          	bltu	a5,a3,2ac <print_hex32+0x28>
     2b4:	04000837          	lui	a6,0x4000
     2b8:	04080813          	addi	a6,a6,64 # 4000040 <_stack_end+0x3eb26a0>
     2bc:	07800793          	li	a5,120
     2c0:	04000737          	lui	a4,0x4000
     2c4:	00f82023          	sw	a5,0(a6)
     2c8:	04470713          	addi	a4,a4,68 # 4000044 <_stack_end+0x3eb26a4>
     2cc:	01c00613          	li	a2,28
     2d0:	00900313          	li	t1,9
     2d4:	000106b7          	lui	a3,0x10
     2d8:	ffc00893          	li	a7,-4
     2dc:	00c557b3          	srl	a5,a0,a2
     2e0:	00f7f793          	andi	a5,a5,15
     2e4:	03778593          	addi	a1,a5,55
     2e8:	00f36463          	bltu	t1,a5,2f0 <print_hex32+0x6c>
     2ec:	03078593          	addi	a1,a5,48
     2f0:	00072783          	lw	a5,0(a4)
     2f4:	fed7eee3          	bltu	a5,a3,2f0 <print_hex32+0x6c>
     2f8:	00b82023          	sw	a1,0(a6)
     2fc:	ffc60613          	addi	a2,a2,-4 # fffc <__global_pointer+0xdf80>
     300:	fd161ee3          	bne	a2,a7,2dc <print_hex32+0x58>
     304:	00008067          	ret

00000308 <handle_exception>:
     308:	00200793          	li	a5,2
     30c:	1af80463          	beq	a6,a5,4b4 <handle_exception+0x1ac>
     310:	00b00793          	li	a5,11
     314:	12f80663          	beq	a6,a5,440 <handle_exception+0x138>
     318:	14081c63          	bnez	a6,470 <handle_exception+0x168>
     31c:	0004e637          	lui	a2,0x4e
     320:	0004e8b7          	lui	a7,0x4e
     324:	04000737          	lui	a4,0x4000
     328:	04000837          	lui	a6,0x4000
     32c:	91860613          	addi	a2,a2,-1768 # 4d918 <CSWTCH.68+0x20>
     330:	94788893          	addi	a7,a7,-1721 # 4d947 <CSWTCH.68+0x4f>
     334:	04470713          	addi	a4,a4,68 # 4000044 <_stack_end+0x3eb26a4>
     338:	04080813          	addi	a6,a6,64 # 4000040 <_stack_end+0x3eb26a0>
     33c:	00a00593          	li	a1,10
     340:	000106b7          	lui	a3,0x10
     344:	00072783          	lw	a5,0(a4)
     348:	fed7eee3          	bltu	a5,a3,344 <handle_exception+0x3c>
     34c:	00b82023          	sw	a1,0(a6)
     350:	00160613          	addi	a2,a2,1
     354:	00064583          	lbu	a1,0(a2)
     358:	ff1616e3          	bne	a2,a7,344 <handle_exception+0x3c>
     35c:	0004e637          	lui	a2,0x4e
     360:	0004e8b7          	lui	a7,0x4e
     364:	04000737          	lui	a4,0x4000
     368:	04000837          	lui	a6,0x4000
     36c:	98c60613          	addi	a2,a2,-1652 # 4d98c <CSWTCH.68+0x94>
     370:	99f88893          	addi	a7,a7,-1633 # 4d99f <CSWTCH.68+0xa7>
     374:	04470713          	addi	a4,a4,68 # 4000044 <_stack_end+0x3eb26a4>
     378:	04080813          	addi	a6,a6,64 # 4000040 <_stack_end+0x3eb26a0>
     37c:	04500593          	li	a1,69
     380:	000106b7          	lui	a3,0x10
     384:	00072783          	lw	a5,0(a4)
     388:	fed7eee3          	bltu	a5,a3,384 <handle_exception+0x7c>
     38c:	00b82023          	sw	a1,0(a6)
     390:	00160613          	addi	a2,a2,1
     394:	00064583          	lbu	a1,0(a2)
     398:	ff1616e3          	bne	a2,a7,384 <handle_exception+0x7c>
     39c:	04000737          	lui	a4,0x4000
     3a0:	04470713          	addi	a4,a4,68 # 4000044 <_stack_end+0x3eb26a4>
     3a4:	000106b7          	lui	a3,0x10
     3a8:	00072783          	lw	a5,0(a4)
     3ac:	fed7eee3          	bltu	a5,a3,3a8 <handle_exception+0xa0>
     3b0:	040007b7          	lui	a5,0x4000
     3b4:	03000693          	li	a3,48
     3b8:	04d7a023          	sw	a3,64(a5) # 4000040 <_stack_end+0x3eb26a0>
     3bc:	04478713          	addi	a4,a5,68
     3c0:	000106b7          	lui	a3,0x10
     3c4:	00072783          	lw	a5,0(a4)
     3c8:	fed7eee3          	bltu	a5,a3,3c4 <handle_exception+0xbc>
     3cc:	04000837          	lui	a6,0x4000
     3d0:	04080813          	addi	a6,a6,64 # 4000040 <_stack_end+0x3eb26a0>
     3d4:	07800793          	li	a5,120
     3d8:	04000737          	lui	a4,0x4000
     3dc:	00f82023          	sw	a5,0(a6)
     3e0:	04470713          	addi	a4,a4,68 # 4000044 <_stack_end+0x3eb26a4>
     3e4:	01c00613          	li	a2,28
     3e8:	00900313          	li	t1,9
     3ec:	000106b7          	lui	a3,0x10
     3f0:	ffc00893          	li	a7,-4
     3f4:	00c557b3          	srl	a5,a0,a2
     3f8:	00f7f793          	andi	a5,a5,15
     3fc:	03778593          	addi	a1,a5,55
     400:	00f36463          	bltu	t1,a5,408 <handle_exception+0x100>
     404:	03078593          	addi	a1,a5,48
     408:	00072783          	lw	a5,0(a4)
     40c:	fed7eee3          	bltu	a5,a3,408 <handle_exception+0x100>
     410:	00b82023          	sw	a1,0(a6)
     414:	ffc60613          	addi	a2,a2,-4
     418:	fd161ee3          	bne	a2,a7,3f4 <handle_exception+0xec>
     41c:	04000737          	lui	a4,0x4000
     420:	04470713          	addi	a4,a4,68 # 4000044 <_stack_end+0x3eb26a4>
     424:	000106b7          	lui	a3,0x10
     428:	00072783          	lw	a5,0(a4)
     42c:	fed7eee3          	bltu	a5,a3,428 <handle_exception+0x120>
     430:	040007b7          	lui	a5,0x4000
     434:	00a00713          	li	a4,10
     438:	04e7a023          	sw	a4,64(a5) # 4000040 <_stack_end+0x3eb26a0>
     43c:	0000006f          	j	43c <handle_exception+0x134>
     440:	00400793          	li	a5,4
     444:	0af88a63          	beq	a7,a5,4f8 <handle_exception+0x1f0>
     448:	0f089463          	bne	a7,a6,530 <handle_exception+0x228>
     44c:	04000737          	lui	a4,0x4000
     450:	04470713          	addi	a4,a4,68 # 4000044 <_stack_end+0x3eb26a4>
     454:	000106b7          	lui	a3,0x10
     458:	00072783          	lw	a5,0(a4)
     45c:	fed7eee3          	bltu	a5,a3,458 <handle_exception+0x150>
     460:	040007b7          	lui	a5,0x4000
     464:	0ff57513          	zext.b	a0,a0
     468:	04a7a023          	sw	a0,64(a5) # 4000040 <_stack_end+0x3eb26a0>
     46c:	00008067          	ret
     470:	0004e637          	lui	a2,0x4e
     474:	0004e8b7          	lui	a7,0x4e
     478:	04000737          	lui	a4,0x4000
     47c:	04000837          	lui	a6,0x4000
     480:	96c60613          	addi	a2,a2,-1684 # 4d96c <CSWTCH.68+0x74>
     484:	98888893          	addi	a7,a7,-1656 # 4d988 <CSWTCH.68+0x90>
     488:	04470713          	addi	a4,a4,68 # 4000044 <_stack_end+0x3eb26a4>
     48c:	04080813          	addi	a6,a6,64 # 4000040 <_stack_end+0x3eb26a0>
     490:	00a00593          	li	a1,10
     494:	000106b7          	lui	a3,0x10
     498:	00072783          	lw	a5,0(a4)
     49c:	fed7eee3          	bltu	a5,a3,498 <handle_exception+0x190>
     4a0:	00b82023          	sw	a1,0(a6)
     4a4:	00160613          	addi	a2,a2,1
     4a8:	00064583          	lbu	a1,0(a2)
     4ac:	ff1616e3          	bne	a2,a7,498 <handle_exception+0x190>
     4b0:	eadff06f          	j	35c <handle_exception+0x54>
     4b4:	0004e637          	lui	a2,0x4e
     4b8:	0004e8b7          	lui	a7,0x4e
     4bc:	04000737          	lui	a4,0x4000
     4c0:	04000837          	lui	a6,0x4000
     4c4:	94860613          	addi	a2,a2,-1720 # 4d948 <CSWTCH.68+0x50>
     4c8:	96a88893          	addi	a7,a7,-1686 # 4d96a <CSWTCH.68+0x72>
     4cc:	04470713          	addi	a4,a4,68 # 4000044 <_stack_end+0x3eb26a4>
     4d0:	04080813          	addi	a6,a6,64 # 4000040 <_stack_end+0x3eb26a0>
     4d4:	00a00593          	li	a1,10
     4d8:	000106b7          	lui	a3,0x10
     4dc:	00072783          	lw	a5,0(a4)
     4e0:	fed7eee3          	bltu	a5,a3,4dc <handle_exception+0x1d4>
     4e4:	00b82023          	sw	a1,0(a6)
     4e8:	00160613          	addi	a2,a2,1
     4ec:	00064583          	lbu	a1,0(a2)
     4f0:	ff1616e3          	bne	a2,a7,4dc <handle_exception+0x1d4>
     4f4:	e69ff06f          	j	35c <handle_exception+0x54>
     4f8:	00054603          	lbu	a2,0(a0)
     4fc:	02060a63          	beqz	a2,530 <handle_exception+0x228>
     500:	04000737          	lui	a4,0x4000
     504:	040005b7          	lui	a1,0x4000
     508:	04470713          	addi	a4,a4,68 # 4000044 <_stack_end+0x3eb26a4>
     50c:	04058593          	addi	a1,a1,64 # 4000040 <_stack_end+0x3eb26a0>
     510:	000106b7          	lui	a3,0x10
     514:	00072783          	lw	a5,0(a4)
     518:	fed7eee3          	bltu	a5,a3,514 <handle_exception+0x20c>
     51c:	00c5a023          	sw	a2,0(a1)
     520:	00154603          	lbu	a2,1(a0)
     524:	00150513          	addi	a0,a0,1
     528:	fe0616e3          	bnez	a2,514 <handle_exception+0x20c>
     52c:	00008067          	ret
     530:	00008067          	ret

00000534 <nextprime>:
     534:	00200793          	li	a5,2
     538:	02a7c063          	blt	a5,a0,558 <nextprime+0x24>
     53c:	00100693          	li	a3,1
     540:	00a05863          	blez	a0,550 <nextprime+0x1c>
     544:	fff50793          	addi	a5,a0,-1
     548:	00f037b3          	snez	a5,a5
     54c:	00278693          	addi	a3,a5,2
     550:	00068513          	mv	a0,a3
     554:	00008067          	ret
     558:	00150513          	addi	a0,a0,1
     55c:	00156693          	ori	a3,a0,1
     560:	00300793          	li	a5,3
     564:	02f6e733          	rem	a4,a3,a5
     568:	4016d613          	srai	a2,a3,0x1
     56c:	00260613          	addi	a2,a2,2
     570:	00178793          	addi	a5,a5,1
     574:	00070a63          	beqz	a4,588 <nextprime+0x54>
     578:	fcf60ce3          	beq	a2,a5,550 <nextprime+0x1c>
     57c:	02f6e733          	rem	a4,a3,a5
     580:	00178793          	addi	a5,a5,1
     584:	fe071ae3          	bnez	a4,578 <nextprime+0x44>
     588:	00268693          	addi	a3,a3,2 # 10002 <__global_pointer+0xdf86>
     58c:	fd5ff06f          	j	560 <nextprime+0x2c>

00000590 <set_leds>:
     590:	3ff57513          	andi	a0,a0,1023
     594:	040007b7          	lui	a5,0x4000
     598:	00a7a023          	sw	a0,0(a5) # 4000000 <_stack_end+0x3eb2660>
     59c:	00008067          	ret

000005a0 <set_displays>:
     5a0:	004007b7          	lui	a5,0x400
     5a4:	00578793          	addi	a5,a5,5 # 400005 <_stack_end+0x2b2665>
     5a8:	00f50533          	add	a0,a0,a5
     5ac:	00900713          	li	a4,9
     5b0:	00451513          	slli	a0,a0,0x4
     5b4:	00000793          	li	a5,0
     5b8:	00b76c63          	bltu	a4,a1,5d0 <set_displays+0x30>
     5bc:	0004e7b7          	lui	a5,0x4e
     5c0:	00259593          	slli	a1,a1,0x2
     5c4:	8d078793          	addi	a5,a5,-1840 # 4d8d0 <CSWTCH.63>
     5c8:	00b787b3          	add	a5,a5,a1
     5cc:	0007a783          	lw	a5,0(a5)
     5d0:	00f52023          	sw	a5,0(a0)
     5d4:	00008067          	ret

000005d8 <update_display_time>:
     5d8:	00f57793          	andi	a5,a0,15
     5dc:	00900693          	li	a3,9
     5e0:	00000713          	li	a4,0
     5e4:	00f6cc63          	blt	a3,a5,5fc <update_display_time+0x24>
     5e8:	0004e737          	lui	a4,0x4e
     5ec:	8d070713          	addi	a4,a4,-1840 # 4d8d0 <CSWTCH.63>
     5f0:	00279793          	slli	a5,a5,0x2
     5f4:	00f707b3          	add	a5,a4,a5
     5f8:	0007a703          	lw	a4,0(a5)
     5fc:	040007b7          	lui	a5,0x4000
     600:	04e7a823          	sw	a4,80(a5) # 4000050 <_stack_end+0x3eb26b0>
     604:	40455793          	srai	a5,a0,0x4
     608:	00f7f793          	andi	a5,a5,15
     60c:	00900693          	li	a3,9
     610:	00000713          	li	a4,0
     614:	00f6cc63          	blt	a3,a5,62c <update_display_time+0x54>
     618:	0004e737          	lui	a4,0x4e
     61c:	8d070713          	addi	a4,a4,-1840 # 4d8d0 <CSWTCH.63>
     620:	00279793          	slli	a5,a5,0x2
     624:	00f707b3          	add	a5,a4,a5
     628:	0007a703          	lw	a4,0(a5)
     62c:	040007b7          	lui	a5,0x4000
     630:	06e7a023          	sw	a4,96(a5) # 4000060 <_stack_end+0x3eb26c0>
     634:	40855793          	srai	a5,a0,0x8
     638:	00f7f793          	andi	a5,a5,15
     63c:	00900693          	li	a3,9
     640:	00000713          	li	a4,0
     644:	00f6cc63          	blt	a3,a5,65c <update_display_time+0x84>
     648:	0004e737          	lui	a4,0x4e
     64c:	8d070713          	addi	a4,a4,-1840 # 4d8d0 <CSWTCH.63>
     650:	00279793          	slli	a5,a5,0x2
     654:	00f707b3          	add	a5,a4,a5
     658:	0007a703          	lw	a4,0(a5)
     65c:	040007b7          	lui	a5,0x4000
     660:	40c55513          	srai	a0,a0,0xc
     664:	06e7a823          	sw	a4,112(a5) # 4000070 <_stack_end+0x3eb26d0>
     668:	00f57513          	andi	a0,a0,15
     66c:	00900793          	li	a5,9
     670:	00000613          	li	a2,0
     674:	00a7cc63          	blt	a5,a0,68c <update_display_time+0xb4>
     678:	0004e7b7          	lui	a5,0x4e
     67c:	00251513          	slli	a0,a0,0x2
     680:	8d078793          	addi	a5,a5,-1840 # 4d8d0 <CSWTCH.63>
     684:	00a787b3          	add	a5,a5,a0
     688:	0007a603          	lw	a2,0(a5)
     68c:	666667b7          	lui	a5,0x66666
     690:	66778793          	addi	a5,a5,1639 # 66666667 <_stack_end+0x66518cc7>
     694:	02f597b3          	mulh	a5,a1,a5
     698:	41f5d693          	srai	a3,a1,0x1f
     69c:	04000737          	lui	a4,0x4000
     6a0:	08c72023          	sw	a2,128(a4) # 4000080 <_stack_end+0x3eb26e0>
     6a4:	00900513          	li	a0,9
     6a8:	00000613          	li	a2,0
     6ac:	4027d793          	srai	a5,a5,0x2
     6b0:	40d787b3          	sub	a5,a5,a3
     6b4:	00279713          	slli	a4,a5,0x2
     6b8:	00f707b3          	add	a5,a4,a5
     6bc:	00179793          	slli	a5,a5,0x1
     6c0:	40f587b3          	sub	a5,a1,a5
     6c4:	00f56c63          	bltu	a0,a5,6dc <update_display_time+0x104>
     6c8:	0004e737          	lui	a4,0x4e
     6cc:	00279793          	slli	a5,a5,0x2
     6d0:	8d070713          	addi	a4,a4,-1840 # 4d8d0 <CSWTCH.63>
     6d4:	00f707b3          	add	a5,a4,a5
     6d8:	0007a603          	lw	a2,0(a5)
     6dc:	666667b7          	lui	a5,0x66666
     6e0:	66778793          	addi	a5,a5,1639 # 66666667 <_stack_end+0x66518cc7>
     6e4:	02f595b3          	mulh	a1,a1,a5
     6e8:	040007b7          	lui	a5,0x4000
     6ec:	08c7a823          	sw	a2,144(a5) # 4000090 <_stack_end+0x3eb26f0>
     6f0:	00900793          	li	a5,9
     6f4:	00000713          	li	a4,0
     6f8:	4025d593          	srai	a1,a1,0x2
     6fc:	40d585b3          	sub	a1,a1,a3
     700:	00b7ec63          	bltu	a5,a1,718 <update_display_time+0x140>
     704:	0004e7b7          	lui	a5,0x4e
     708:	00259593          	slli	a1,a1,0x2
     70c:	8d078793          	addi	a5,a5,-1840 # 4d8d0 <CSWTCH.63>
     710:	00b787b3          	add	a5,a5,a1
     714:	0007a703          	lw	a4,0(a5)
     718:	040007b7          	lui	a5,0x4000
     71c:	0ae7a023          	sw	a4,160(a5) # 40000a0 <_stack_end+0x3eb2700>
     720:	00008067          	ret

00000724 <get_sw>:
     724:	040007b7          	lui	a5,0x4000
     728:	0107a503          	lw	a0,16(a5) # 4000010 <_stack_end+0x3eb2670>
     72c:	3ff57513          	andi	a0,a0,1023
     730:	00008067          	ret

00000734 <get_btn>:
     734:	040007b7          	lui	a5,0x4000
     738:	0d07a503          	lw	a0,208(a5) # 40000d0 <_stack_end+0x3eb2730>
     73c:	00157513          	andi	a0,a0,1
     740:	00008067          	ret

00000744 <get_input>:
     744:	040007b7          	lui	a5,0x4000
     748:	01078793          	addi	a5,a5,16 # 4000010 <_stack_end+0x3eb2670>
     74c:	0007a783          	lw	a5,0(a5)
     750:	00700713          	li	a4,7
     754:	00000513          	li	a0,0
     758:	00f7f793          	andi	a5,a5,15
     75c:	fff78793          	addi	a5,a5,-1
     760:	00f76c63          	bltu	a4,a5,778 <get_input+0x34>
     764:	0004e737          	lui	a4,0x4e
     768:	00279793          	slli	a5,a5,0x2
     76c:	8d070713          	addi	a4,a4,-1840 # 4d8d0 <CSWTCH.63>
     770:	00f707b3          	add	a5,a4,a5
     774:	0287a503          	lw	a0,40(a5)
     778:	00008067          	ret

0000077c <valid_dir>:
     77c:	fff50693          	addi	a3,a0,-1
     780:	00300713          	li	a4,3
     784:	02d76663          	bltu	a4,a3,7b0 <valid_dir+0x34>
     788:	000027b7          	lui	a5,0x2
     78c:	87c7a783          	lw	a5,-1924(a5) # 187c <dir>
     790:	00100613          	li	a2,1
     794:	02c78263          	beq	a5,a2,7b8 <valid_dir+0x3c>
     798:	00200613          	li	a2,2
     79c:	02c78e63          	beq	a5,a2,7d8 <valid_dir+0x5c>
     7a0:	02e79063          	bne	a5,a4,7c0 <valid_dir+0x44>
     7a4:	ffc50513          	addi	a0,a0,-4
     7a8:	00a03533          	snez	a0,a0
     7ac:	00008067          	ret
     7b0:	00000513          	li	a0,0
     7b4:	00008067          	ret
     7b8:	00200713          	li	a4,2
     7bc:	fee50ae3          	beq	a0,a4,7b0 <valid_dir+0x34>
     7c0:	ffc78793          	addi	a5,a5,-4
     7c4:	ffd50513          	addi	a0,a0,-3
     7c8:	00f037b3          	snez	a5,a5
     7cc:	00a03533          	snez	a0,a0
     7d0:	00a7e533          	or	a0,a5,a0
     7d4:	00008067          	ret
     7d8:	00d03533          	snez	a0,a3
     7dc:	00008067          	ret

000007e0 <move_snake>:
     7e0:	000027b7          	lui	a5,0x2
     7e4:	8807a783          	lw	a5,-1920(a5) # 1880 <tailLength>
     7e8:	00002537          	lui	a0,0x2
     7ec:	00100713          	li	a4,1
     7f0:	88c50513          	addi	a0,a0,-1908 # 188c <tailX>
     7f4:	02f75e63          	bge	a4,a5,830 <__heap_size+0x30>
     7f8:	00279693          	slli	a3,a5,0x2
     7fc:	23850713          	addi	a4,a0,568
     800:	ff850793          	addi	a5,a0,-8
     804:	000025b7          	lui	a1,0x2
     808:	00d787b3          	add	a5,a5,a3
     80c:	00d70733          	add	a4,a4,a3
     810:	88858593          	addi	a1,a1,-1912 # 1888 <mytime>
     814:	0007a603          	lw	a2,0(a5)
     818:	00072683          	lw	a3,0(a4)
     81c:	ffc78793          	addi	a5,a5,-4
     820:	00c7a423          	sw	a2,8(a5)
     824:	00d72223          	sw	a3,4(a4)
     828:	ffc70713          	addi	a4,a4,-4
     82c:	fef594e3          	bne	a1,a5,814 <__heap_size+0x14>
     830:	0004d5b7          	lui	a1,0x4d
     834:	0004d637          	lui	a2,0x4d
     838:	f5c5a683          	lw	a3,-164(a1) # 4cf5c <headX>
     83c:	f5862783          	lw	a5,-168(a2) # 4cf58 <headY>
     840:	00002737          	lui	a4,0x2
     844:	87c72703          	lw	a4,-1924(a4) # 187c <dir>
     848:	00d52023          	sw	a3,0(a0)
     84c:	24f52023          	sw	a5,576(a0)
     850:	00100513          	li	a0,1
     854:	02a70663          	beq	a4,a0,880 <__heap_size+0x80>
     858:	00200513          	li	a0,2
     85c:	00a70c63          	beq	a4,a0,874 <__heap_size+0x74>
     860:	00300793          	li	a5,3
     864:	02f70a63          	beq	a4,a5,898 <__heap_size+0x98>
     868:	00400793          	li	a5,4
     86c:	02f70063          	beq	a4,a5,88c <__heap_size+0x8c>
     870:	00008067          	ret
     874:	00178793          	addi	a5,a5,1
     878:	f4f62c23          	sw	a5,-168(a2)
     87c:	00008067          	ret
     880:	fff78793          	addi	a5,a5,-1
     884:	f4f62c23          	sw	a5,-168(a2)
     888:	00008067          	ret
     88c:	00168693          	addi	a3,a3,1
     890:	f4d5ae23          	sw	a3,-164(a1)
     894:	00008067          	ret
     898:	fff68693          	addi	a3,a3,-1
     89c:	f4d5ae23          	sw	a3,-164(a1)
     8a0:	00008067          	ret

000008a4 <get_random>:
     8a4:	00002637          	lui	a2,0x2
     8a8:	88462703          	lw	a4,-1916(a2) # 1884 <seed>
     8ac:	05700693          	li	a3,87
     8b0:	000027b7          	lui	a5,0x2
     8b4:	02d70733          	mul	a4,a4,a3
     8b8:	87c7a883          	lw	a7,-1924(a5) # 187c <dir>
     8bc:	0004d7b7          	lui	a5,0x4d
     8c0:	f5c7a803          	lw	a6,-164(a5) # 4cf5c <headX>
     8c4:	0004d7b7          	lui	a5,0x4d
     8c8:	f587a583          	lw	a1,-168(a5) # 4cf58 <headY>
     8cc:	644937b7          	lui	a5,0x64493
     8d0:	b8378793          	addi	a5,a5,-1149 # 64492b83 <_stack_end+0x643451e3>
     8d4:	000146b7          	lui	a3,0x14
     8d8:	6bf68693          	addi	a3,a3,1727 # 146bf <__global_pointer+0x12643>
     8dc:	01170733          	add	a4,a4,a7
     8e0:	01070733          	add	a4,a4,a6
     8e4:	00b70733          	add	a4,a4,a1
     8e8:	02f717b3          	mulh	a5,a4,a5
     8ec:	41f75593          	srai	a1,a4,0x1f
     8f0:	40f7d793          	srai	a5,a5,0xf
     8f4:	40b787b3          	sub	a5,a5,a1
     8f8:	02d787b3          	mul	a5,a5,a3
     8fc:	40f707b3          	sub	a5,a4,a5
     900:	02a7e533          	rem	a0,a5,a0
     904:	88f62223          	sw	a5,-1916(a2)
     908:	00008067          	ret

0000090c <check_fruit_collision>:
     90c:	0004d737          	lui	a4,0x4d
     910:	0004d7b7          	lui	a5,0x4d
     914:	f5c72703          	lw	a4,-164(a4) # 4cf5c <headX>
     918:	f547a783          	lw	a5,-172(a5) # 4cf54 <fruitX>
     91c:	00000513          	li	a0,0
     920:	00f70463          	beq	a4,a5,928 <check_fruit_collision+0x1c>
     924:	00008067          	ret
     928:	0004d737          	lui	a4,0x4d
     92c:	0004d7b7          	lui	a5,0x4d
     930:	f5872503          	lw	a0,-168(a4) # 4cf58 <headY>
     934:	f507a783          	lw	a5,-176(a5) # 4cf50 <fruitY>
     938:	40f50533          	sub	a0,a0,a5
     93c:	00153513          	seqz	a0,a0
     940:	00008067          	ret

00000944 <valid_fruit_pos>:
     944:	0004d737          	lui	a4,0x4d
     948:	0004d7b7          	lui	a5,0x4d
     94c:	f5472803          	lw	a6,-172(a4) # 4cf54 <fruitX>
     950:	f5c7a783          	lw	a5,-164(a5) # 4cf5c <headX>
     954:	06f80063          	beq	a6,a5,9b4 <valid_fruit_pos+0x70>
     958:	000027b7          	lui	a5,0x2
     95c:	8807a583          	lw	a1,-1920(a5) # 1880 <tailLength>
     960:	fff58593          	addi	a1,a1,-1
     964:	04b05463          	blez	a1,9ac <valid_fruit_pos+0x68>
     968:	000027b7          	lui	a5,0x2
     96c:	0004d737          	lui	a4,0x4d
     970:	88c78793          	addi	a5,a5,-1908 # 188c <tailX>
     974:	f5072503          	lw	a0,-176(a4) # 4cf50 <fruitY>
     978:	24078693          	addi	a3,a5,576
     97c:	00000713          	li	a4,0
     980:	00c0006f          	j	98c <valid_fruit_pos+0x48>
     984:	00468693          	addi	a3,a3,4
     988:	02b70263          	beq	a4,a1,9ac <valid_fruit_pos+0x68>
     98c:	0007a603          	lw	a2,0(a5)
     990:	00170713          	addi	a4,a4,1
     994:	00478793          	addi	a5,a5,4
     998:	fec816e3          	bne	a6,a2,984 <valid_fruit_pos+0x40>
     99c:	0006a603          	lw	a2,0(a3)
     9a0:	fea612e3          	bne	a2,a0,984 <valid_fruit_pos+0x40>
     9a4:	00000513          	li	a0,0
     9a8:	00008067          	ret
     9ac:	00100513          	li	a0,1
     9b0:	00008067          	ret
     9b4:	0004d737          	lui	a4,0x4d
     9b8:	0004d7b7          	lui	a5,0x4d
     9bc:	f5072703          	lw	a4,-176(a4) # 4cf50 <fruitY>
     9c0:	f587a783          	lw	a5,-168(a5) # 4cf58 <headY>
     9c4:	00000513          	li	a0,0
     9c8:	f8f718e3          	bne	a4,a5,958 <valid_fruit_pos+0x14>
     9cc:	00008067          	ret

000009d0 <new_fruit_pos>:
     9d0:	000027b7          	lui	a5,0x2
     9d4:	8807a803          	lw	a6,-1920(a5) # 1880 <tailLength>
     9d8:	fe010113          	addi	sp,sp,-32
     9dc:	00812e23          	sw	s0,28(sp)
     9e0:	00912c23          	sw	s1,24(sp)
     9e4:	01212a23          	sw	s2,20(sp)
     9e8:	01312823          	sw	s3,16(sp)
     9ec:	01412623          	sw	s4,12(sp)
     9f0:	09000793          	li	a5,144
     9f4:	00f81863          	bne	a6,a5,a04 <new_fruit_pos+0x34>
     9f8:	0004d7b7          	lui	a5,0x4d
     9fc:	00100713          	li	a4,1
     a00:	f6e7a023          	sw	a4,-160(a5) # 4cf60 <gameover>
     a04:	00002937          	lui	s2,0x2
     a08:	88492703          	lw	a4,-1916(s2) # 1884 <seed>
     a0c:	05700393          	li	t2,87
     a10:	000027b7          	lui	a5,0x2
     a14:	02770733          	mul	a4,a4,t2
     a18:	87c7a283          	lw	t0,-1924(a5) # 187c <dir>
     a1c:	0004d7b7          	lui	a5,0x4d
     a20:	f5c7a303          	lw	t1,-164(a5) # 4cf5c <headX>
     a24:	0004d7b7          	lui	a5,0x4d
     a28:	f587ae03          	lw	t3,-168(a5) # 4cf58 <headY>
     a2c:	64493fb7          	lui	t6,0x64493
     a30:	b83f8f93          	addi	t6,t6,-1149 # 64492b83 <_stack_end+0x643451e3>
     a34:	00014f37          	lui	t5,0x14
     a38:	6bff0f13          	addi	t5,t5,1727 # 146bf <__global_pointer+0x12643>
     a3c:	00570733          	add	a4,a4,t0
     a40:	00670733          	add	a4,a4,t1
     a44:	01c70733          	add	a4,a4,t3
     a48:	03f717b3          	mulh	a5,a4,t6
     a4c:	41f75693          	srai	a3,a4,0x1f
     a50:	2aaabeb7          	lui	t4,0x2aaab
     a54:	aabe8e93          	addi	t4,t4,-1365 # 2aaaaaab <_stack_end+0x2a95d10b>
     a58:	0004d9b7          	lui	s3,0x4d
     a5c:	0004da37          	lui	s4,0x4d
     a60:	fff80813          	addi	a6,a6,-1
     a64:	00000413          	li	s0,0
     a68:	000024b7          	lui	s1,0x2
     a6c:	40f7d793          	srai	a5,a5,0xf
     a70:	40d787b3          	sub	a5,a5,a3
     a74:	03e787b3          	mul	a5,a5,t5
     a78:	40f707b3          	sub	a5,a4,a5
     a7c:	02778733          	mul	a4,a5,t2
     a80:	41f7d693          	srai	a3,a5,0x1f
     a84:	00570733          	add	a4,a4,t0
     a88:	00670733          	add	a4,a4,t1
     a8c:	01c70733          	add	a4,a4,t3
     a90:	03f715b3          	mulh	a1,a4,t6
     a94:	41f75613          	srai	a2,a4,0x1f
     a98:	40f5d593          	srai	a1,a1,0xf
     a9c:	40c585b3          	sub	a1,a1,a2
     aa0:	03e585b3          	mul	a1,a1,t5
     aa4:	40b705b3          	sub	a1,a4,a1
     aa8:	03d598b3          	mulh	a7,a1,t4
     aac:	41f5d713          	srai	a4,a1,0x1f
     ab0:	88b92223          	sw	a1,-1916(s2)
     ab4:	03d79533          	mulh	a0,a5,t4
     ab8:	4018d893          	srai	a7,a7,0x1
     abc:	40e888b3          	sub	a7,a7,a4
     ac0:	00189713          	slli	a4,a7,0x1
     ac4:	01170733          	add	a4,a4,a7
     ac8:	00271713          	slli	a4,a4,0x2
     acc:	40e588b3          	sub	a7,a1,a4
     ad0:	f519a823          	sw	a7,-176(s3) # 4cf50 <fruitY>
     ad4:	40155513          	srai	a0,a0,0x1
     ad8:	40d50533          	sub	a0,a0,a3
     adc:	00151713          	slli	a4,a0,0x1
     ae0:	00a70733          	add	a4,a4,a0
     ae4:	00271713          	slli	a4,a4,0x2
     ae8:	40e78533          	sub	a0,a5,a4
     aec:	f4aa2a23          	sw	a0,-172(s4) # 4cf54 <fruitX>
     af0:	0c650863          	beq	a0,t1,bc0 <new_fruit_pos+0x1f0>
     af4:	0d005a63          	blez	a6,bc8 <new_fruit_pos+0x1f8>
     af8:	88c48793          	addi	a5,s1,-1908 # 188c <tailX>
     afc:	24078693          	addi	a3,a5,576
     b00:	00000713          	li	a4,0
     b04:	00c0006f          	j	b10 <new_fruit_pos+0x140>
     b08:	00468693          	addi	a3,a3,4
     b0c:	0ae80e63          	beq	a6,a4,bc8 <new_fruit_pos+0x1f8>
     b10:	0007a603          	lw	a2,0(a5)
     b14:	00170713          	addi	a4,a4,1
     b18:	00478793          	addi	a5,a5,4
     b1c:	fec516e3          	bne	a0,a2,b08 <new_fruit_pos+0x138>
     b20:	0006a603          	lw	a2,0(a3)
     b24:	fec892e3          	bne	a7,a2,b08 <new_fruit_pos+0x138>
     b28:	02758733          	mul	a4,a1,t2
     b2c:	00100413          	li	s0,1
     b30:	00570733          	add	a4,a4,t0
     b34:	00670733          	add	a4,a4,t1
     b38:	01c70733          	add	a4,a4,t3
     b3c:	03f717b3          	mulh	a5,a4,t6
     b40:	41f75693          	srai	a3,a4,0x1f
     b44:	40f7d793          	srai	a5,a5,0xf
     b48:	40d787b3          	sub	a5,a5,a3
     b4c:	03e787b3          	mul	a5,a5,t5
     b50:	40f707b3          	sub	a5,a4,a5
     b54:	02778733          	mul	a4,a5,t2
     b58:	41f7d693          	srai	a3,a5,0x1f
     b5c:	00570733          	add	a4,a4,t0
     b60:	00670733          	add	a4,a4,t1
     b64:	01c70733          	add	a4,a4,t3
     b68:	03f715b3          	mulh	a1,a4,t6
     b6c:	41f75613          	srai	a2,a4,0x1f
     b70:	40f5d593          	srai	a1,a1,0xf
     b74:	40c585b3          	sub	a1,a1,a2
     b78:	03e585b3          	mul	a1,a1,t5
     b7c:	40b705b3          	sub	a1,a4,a1
     b80:	03d598b3          	mulh	a7,a1,t4
     b84:	41f5d713          	srai	a4,a1,0x1f
     b88:	03d79533          	mulh	a0,a5,t4
     b8c:	4018d893          	srai	a7,a7,0x1
     b90:	40e888b3          	sub	a7,a7,a4
     b94:	00189713          	slli	a4,a7,0x1
     b98:	01170733          	add	a4,a4,a7
     b9c:	00271713          	slli	a4,a4,0x2
     ba0:	40e588b3          	sub	a7,a1,a4
     ba4:	40155513          	srai	a0,a0,0x1
     ba8:	40d50533          	sub	a0,a0,a3
     bac:	00151713          	slli	a4,a0,0x1
     bb0:	00a70733          	add	a4,a4,a0
     bb4:	00271713          	slli	a4,a4,0x2
     bb8:	40e78533          	sub	a0,a5,a4
     bbc:	f2651ce3          	bne	a0,t1,af4 <new_fruit_pos+0x124>
     bc0:	f71e04e3          	beq	t3,a7,b28 <new_fruit_pos+0x158>
     bc4:	f3004ae3          	bgtz	a6,af8 <new_fruit_pos+0x128>
     bc8:	00040863          	beqz	s0,bd8 <new_fruit_pos+0x208>
     bcc:	f4aa2a23          	sw	a0,-172(s4)
     bd0:	88b92223          	sw	a1,-1916(s2)
     bd4:	f519a823          	sw	a7,-176(s3)
     bd8:	01c12403          	lw	s0,28(sp)
     bdc:	01812483          	lw	s1,24(sp)
     be0:	01412903          	lw	s2,20(sp)
     be4:	01012983          	lw	s3,16(sp)
     be8:	00c12a03          	lw	s4,12(sp)
     bec:	02010113          	addi	sp,sp,32
     bf0:	00008067          	ret

00000bf4 <check_snake_collision>:
     bf4:	0004d7b7          	lui	a5,0x4d
     bf8:	f5c7a583          	lw	a1,-164(a5) # 4cf5c <headX>
     bfc:	00b00793          	li	a5,11
     c00:	00b7e863          	bltu	a5,a1,c10 <check_snake_collision+0x1c>
     c04:	0004d737          	lui	a4,0x4d
     c08:	f5872703          	lw	a4,-168(a4) # 4cf58 <headY>
     c0c:	00e7f863          	bgeu	a5,a4,c1c <check_snake_collision+0x28>
     c10:	0004d7b7          	lui	a5,0x4d
     c14:	00100713          	li	a4,1
     c18:	f6e7a023          	sw	a4,-160(a5) # 4cf60 <gameover>
     c1c:	000027b7          	lui	a5,0x2
     c20:	8807a603          	lw	a2,-1920(a5) # 1880 <tailLength>
     c24:	04c05c63          	blez	a2,c7c <check_snake_collision+0x88>
     c28:	000027b7          	lui	a5,0x2
     c2c:	0004d737          	lui	a4,0x4d
     c30:	88c78793          	addi	a5,a5,-1908 # 188c <tailX>
     c34:	00261613          	slli	a2,a2,0x2
     c38:	f5872803          	lw	a6,-168(a4) # 4cf58 <headY>
     c3c:	00f60633          	add	a2,a2,a5
     c40:	24078713          	addi	a4,a5,576
     c44:	00000513          	li	a0,0
     c48:	0007a683          	lw	a3,0(a5)
     c4c:	00478793          	addi	a5,a5,4
     c50:	00d59a63          	bne	a1,a3,c64 <check_snake_collision+0x70>
     c54:	00072683          	lw	a3,0(a4)
     c58:	410686b3          	sub	a3,a3,a6
     c5c:	0016b693          	seqz	a3,a3
     c60:	00d56533          	or	a0,a0,a3
     c64:	00470713          	addi	a4,a4,4
     c68:	fef610e3          	bne	a2,a5,c48 <check_snake_collision+0x54>
     c6c:	00050863          	beqz	a0,c7c <check_snake_collision+0x88>
     c70:	0004d7b7          	lui	a5,0x4d
     c74:	00100713          	li	a4,1
     c78:	f6e7a023          	sw	a4,-160(a5) # 4cf60 <gameover>
     c7c:	00008067          	ret

00000c80 <clear_grid>:
     c80:	000027b7          	lui	a5,0x2
     c84:	88c78793          	addi	a5,a5,-1908 # 188c <tailX>
     c88:	4807a023          	sw	zero,1152(a5)
     c8c:	4807a223          	sw	zero,1156(a5)
     c90:	4807a423          	sw	zero,1160(a5)
     c94:	4807a623          	sw	zero,1164(a5)
     c98:	4807a823          	sw	zero,1168(a5)
     c9c:	4807aa23          	sw	zero,1172(a5)
     ca0:	4807ac23          	sw	zero,1176(a5)
     ca4:	4807ae23          	sw	zero,1180(a5)
     ca8:	4a07a023          	sw	zero,1184(a5)
     cac:	4a07a223          	sw	zero,1188(a5)
     cb0:	4a07a423          	sw	zero,1192(a5)
     cb4:	4a07a623          	sw	zero,1196(a5)
     cb8:	4a07a823          	sw	zero,1200(a5)
     cbc:	4a07aa23          	sw	zero,1204(a5)
     cc0:	4a07ac23          	sw	zero,1208(a5)
     cc4:	4a07ae23          	sw	zero,1212(a5)
     cc8:	4c07a023          	sw	zero,1216(a5)
     ccc:	4c07a223          	sw	zero,1220(a5)
     cd0:	4c07a423          	sw	zero,1224(a5)
     cd4:	4c07a623          	sw	zero,1228(a5)
     cd8:	4c07a823          	sw	zero,1232(a5)
     cdc:	4c07aa23          	sw	zero,1236(a5)
     ce0:	4c07ac23          	sw	zero,1240(a5)
     ce4:	4c07ae23          	sw	zero,1244(a5)
     ce8:	4e07a023          	sw	zero,1248(a5)
     cec:	4e07a223          	sw	zero,1252(a5)
     cf0:	4e07a423          	sw	zero,1256(a5)
     cf4:	4e07a623          	sw	zero,1260(a5)
     cf8:	4e07a823          	sw	zero,1264(a5)
     cfc:	4e07aa23          	sw	zero,1268(a5)
     d00:	4e07ac23          	sw	zero,1272(a5)
     d04:	4e07ae23          	sw	zero,1276(a5)
     d08:	5007a023          	sw	zero,1280(a5)
     d0c:	5007a223          	sw	zero,1284(a5)
     d10:	5007a423          	sw	zero,1288(a5)
     d14:	5007a623          	sw	zero,1292(a5)
     d18:	5007a823          	sw	zero,1296(a5)
     d1c:	5007aa23          	sw	zero,1300(a5)
     d20:	5007ac23          	sw	zero,1304(a5)
     d24:	5007ae23          	sw	zero,1308(a5)
     d28:	5207a023          	sw	zero,1312(a5)
     d2c:	5207a223          	sw	zero,1316(a5)
     d30:	5207a423          	sw	zero,1320(a5)
     d34:	5207a623          	sw	zero,1324(a5)
     d38:	5207a823          	sw	zero,1328(a5)
     d3c:	5207aa23          	sw	zero,1332(a5)
     d40:	5207ac23          	sw	zero,1336(a5)
     d44:	5207ae23          	sw	zero,1340(a5)
     d48:	5407a023          	sw	zero,1344(a5)
     d4c:	5407a223          	sw	zero,1348(a5)
     d50:	5407a423          	sw	zero,1352(a5)
     d54:	5407a623          	sw	zero,1356(a5)
     d58:	5407a823          	sw	zero,1360(a5)
     d5c:	5407aa23          	sw	zero,1364(a5)
     d60:	5407ac23          	sw	zero,1368(a5)
     d64:	5407ae23          	sw	zero,1372(a5)
     d68:	5607a023          	sw	zero,1376(a5)
     d6c:	5607a223          	sw	zero,1380(a5)
     d70:	5607a423          	sw	zero,1384(a5)
     d74:	5607a623          	sw	zero,1388(a5)
     d78:	5607a823          	sw	zero,1392(a5)
     d7c:	5607aa23          	sw	zero,1396(a5)
     d80:	5607ac23          	sw	zero,1400(a5)
     d84:	5607ae23          	sw	zero,1404(a5)
     d88:	5807a023          	sw	zero,1408(a5)
     d8c:	5807a223          	sw	zero,1412(a5)
     d90:	5807a423          	sw	zero,1416(a5)
     d94:	5807a623          	sw	zero,1420(a5)
     d98:	5807a823          	sw	zero,1424(a5)
     d9c:	5807aa23          	sw	zero,1428(a5)
     da0:	5807ac23          	sw	zero,1432(a5)
     da4:	5807ae23          	sw	zero,1436(a5)
     da8:	5a07a023          	sw	zero,1440(a5)
     dac:	5a07a223          	sw	zero,1444(a5)
     db0:	5a07a423          	sw	zero,1448(a5)
     db4:	5a07a623          	sw	zero,1452(a5)
     db8:	5a07a823          	sw	zero,1456(a5)
     dbc:	5a07aa23          	sw	zero,1460(a5)
     dc0:	5a07ac23          	sw	zero,1464(a5)
     dc4:	5a07ae23          	sw	zero,1468(a5)
     dc8:	5c07a023          	sw	zero,1472(a5)
     dcc:	5c07a223          	sw	zero,1476(a5)
     dd0:	5c07a423          	sw	zero,1480(a5)
     dd4:	5c07a623          	sw	zero,1484(a5)
     dd8:	5c07a823          	sw	zero,1488(a5)
     ddc:	5c07aa23          	sw	zero,1492(a5)
     de0:	5c07ac23          	sw	zero,1496(a5)
     de4:	5c07ae23          	sw	zero,1500(a5)
     de8:	5e07a023          	sw	zero,1504(a5)
     dec:	5e07a223          	sw	zero,1508(a5)
     df0:	5e07a423          	sw	zero,1512(a5)
     df4:	5e07a623          	sw	zero,1516(a5)
     df8:	5e07a823          	sw	zero,1520(a5)
     dfc:	5e07aa23          	sw	zero,1524(a5)
     e00:	5e07ac23          	sw	zero,1528(a5)
     e04:	5e07ae23          	sw	zero,1532(a5)
     e08:	6007a023          	sw	zero,1536(a5)
     e0c:	6007a223          	sw	zero,1540(a5)
     e10:	6007a423          	sw	zero,1544(a5)
     e14:	6007a623          	sw	zero,1548(a5)
     e18:	6007a823          	sw	zero,1552(a5)
     e1c:	6007aa23          	sw	zero,1556(a5)
     e20:	6007ac23          	sw	zero,1560(a5)
     e24:	6007ae23          	sw	zero,1564(a5)
     e28:	6207a023          	sw	zero,1568(a5)
     e2c:	6207a223          	sw	zero,1572(a5)
     e30:	6207a423          	sw	zero,1576(a5)
     e34:	6207a623          	sw	zero,1580(a5)
     e38:	6207a823          	sw	zero,1584(a5)
     e3c:	6207aa23          	sw	zero,1588(a5)
     e40:	6207ac23          	sw	zero,1592(a5)
     e44:	6207ae23          	sw	zero,1596(a5)
     e48:	6407a023          	sw	zero,1600(a5)
     e4c:	6407a223          	sw	zero,1604(a5)
     e50:	6407a423          	sw	zero,1608(a5)
     e54:	6407a623          	sw	zero,1612(a5)
     e58:	6407a823          	sw	zero,1616(a5)
     e5c:	6407aa23          	sw	zero,1620(a5)
     e60:	6407ac23          	sw	zero,1624(a5)
     e64:	6407ae23          	sw	zero,1628(a5)
     e68:	6607a023          	sw	zero,1632(a5)
     e6c:	6607a223          	sw	zero,1636(a5)
     e70:	6607a423          	sw	zero,1640(a5)
     e74:	6607a623          	sw	zero,1644(a5)
     e78:	6607a823          	sw	zero,1648(a5)
     e7c:	6607aa23          	sw	zero,1652(a5)
     e80:	6607ac23          	sw	zero,1656(a5)
     e84:	6607ae23          	sw	zero,1660(a5)
     e88:	6807a023          	sw	zero,1664(a5)
     e8c:	6807a223          	sw	zero,1668(a5)
     e90:	6807a423          	sw	zero,1672(a5)
     e94:	6807a623          	sw	zero,1676(a5)
     e98:	6807a823          	sw	zero,1680(a5)
     e9c:	6807aa23          	sw	zero,1684(a5)
     ea0:	6807ac23          	sw	zero,1688(a5)
     ea4:	6807ae23          	sw	zero,1692(a5)
     ea8:	6a07a023          	sw	zero,1696(a5)
     eac:	6a07a223          	sw	zero,1700(a5)
     eb0:	6a07a423          	sw	zero,1704(a5)
     eb4:	6a07a623          	sw	zero,1708(a5)
     eb8:	6a07a823          	sw	zero,1712(a5)
     ebc:	6a07aa23          	sw	zero,1716(a5)
     ec0:	6a07ac23          	sw	zero,1720(a5)
     ec4:	6a07ae23          	sw	zero,1724(a5)
     ec8:	00008067          	ret

00000ecc <grid_add_fruit>:
     ecc:	0004d7b7          	lui	a5,0x4d
     ed0:	f547a703          	lw	a4,-172(a5) # 4cf54 <fruitX>
     ed4:	0004d7b7          	lui	a5,0x4d
     ed8:	f507a683          	lw	a3,-176(a5) # 4cf50 <fruitY>
     edc:	00171793          	slli	a5,a4,0x1
     ee0:	00e787b3          	add	a5,a5,a4
     ee4:	00279793          	slli	a5,a5,0x2
     ee8:	00d787b3          	add	a5,a5,a3
     eec:	00002737          	lui	a4,0x2
     ef0:	88c70713          	addi	a4,a4,-1908 # 188c <tailX>
     ef4:	00279793          	slli	a5,a5,0x2
     ef8:	00f707b3          	add	a5,a4,a5
     efc:	00300713          	li	a4,3
     f00:	48e7a023          	sw	a4,1152(a5)
     f04:	00008067          	ret

00000f08 <grid_add_snake>:
     f08:	0004d7b7          	lui	a5,0x4d
     f0c:	f5c7a703          	lw	a4,-164(a5) # 4cf5c <headX>
     f10:	0004d7b7          	lui	a5,0x4d
     f14:	f587a683          	lw	a3,-168(a5) # 4cf58 <headY>
     f18:	00171793          	slli	a5,a4,0x1
     f1c:	00e787b3          	add	a5,a5,a4
     f20:	00279793          	slli	a5,a5,0x2
     f24:	00002737          	lui	a4,0x2
     f28:	00d787b3          	add	a5,a5,a3
     f2c:	00002537          	lui	a0,0x2
     f30:	88072803          	lw	a6,-1920(a4) # 1880 <tailLength>
     f34:	00279793          	slli	a5,a5,0x2
     f38:	88c50513          	addi	a0,a0,-1908 # 188c <tailX>
     f3c:	00f507b3          	add	a5,a0,a5
     f40:	00100713          	li	a4,1
     f44:	48e7a023          	sw	a4,1152(a5)
     f48:	05005463          	blez	a6,f90 <grid_add_snake+0x88>
     f4c:	00281813          	slli	a6,a6,0x2
     f50:	01050833          	add	a6,a0,a6
     f54:	00050713          	mv	a4,a0
     f58:	24050693          	addi	a3,a0,576
     f5c:	00200893          	li	a7,2
     f60:	00072603          	lw	a2,0(a4)
     f64:	0006a583          	lw	a1,0(a3)
     f68:	00470713          	addi	a4,a4,4
     f6c:	00161793          	slli	a5,a2,0x1
     f70:	00c787b3          	add	a5,a5,a2
     f74:	00279793          	slli	a5,a5,0x2
     f78:	00b787b3          	add	a5,a5,a1
     f7c:	00279793          	slli	a5,a5,0x2
     f80:	00f507b3          	add	a5,a0,a5
     f84:	4917a023          	sw	a7,1152(a5)
     f88:	00468693          	addi	a3,a3,4
     f8c:	fd071ae3          	bne	a4,a6,f60 <grid_add_snake+0x58>
     f90:	00008067          	ret

00000f94 <draw_rect_to_screen>:
     f94:	000057b7          	lui	a5,0x5
     f98:	b0078793          	addi	a5,a5,-1280 # 4b00 <__global_pointer+0x2a84>
     f9c:	02f50533          	mul	a0,a0,a5
     fa0:	00259793          	slli	a5,a1,0x2
     fa4:	00b785b3          	add	a1,a5,a1
     fa8:	000056b7          	lui	a3,0x5
     fac:	000027b7          	lui	a5,0x2
     fb0:	f4c78793          	addi	a5,a5,-180 # 1f4c <screen>
     fb4:	b5068693          	addi	a3,a3,-1200 # 4b50 <__global_pointer+0x2ad4>
     fb8:	00459593          	slli	a1,a1,0x4
     fbc:	05078713          	addi	a4,a5,80
     fc0:	00d786b3          	add	a3,a5,a3
     fc4:	00b70733          	add	a4,a4,a1
     fc8:	00b686b3          	add	a3,a3,a1
     fcc:	00a70733          	add	a4,a4,a0
     fd0:	00a686b3          	add	a3,a3,a0
     fd4:	fb070793          	addi	a5,a4,-80
     fd8:	00c7a023          	sw	a2,0(a5)
     fdc:	00478793          	addi	a5,a5,4
     fe0:	fee79ce3          	bne	a5,a4,fd8 <draw_rect_to_screen+0x44>
     fe4:	3c078713          	addi	a4,a5,960
     fe8:	fed716e3          	bne	a4,a3,fd4 <draw_rect_to_screen+0x40>
     fec:	00008067          	ret

00000ff0 <draw_grid_to_screen>:
     ff0:	ff010113          	addi	sp,sp,-16
     ff4:	000022b7          	lui	t0,0x2
     ff8:	00002fb7          	lui	t6,0x2
     ffc:	00005f37          	lui	t5,0x5
    1000:	00812623          	sw	s0,12(sp)
    1004:	00912423          	sw	s1,8(sp)
    1008:	01212223          	sw	s2,4(sp)
    100c:	d0c28293          	addi	t0,t0,-756 # 1d0c <gridmap>
    1010:	f9cf8f93          	addi	t6,t6,-100 # 1f9c <screen+0x50>
    1014:	b00f0f13          	addi	t5,t5,-1280 # 4b00 <__global_pointer+0x2a84>
    1018:	00000493          	li	s1,0
    101c:	00200e93          	li	t4,2
    1020:	01000513          	li	a0,16
    1024:	00300413          	li	s0,3
    1028:	0c000593          	li	a1,192
    102c:	04900613          	li	a2,73
    1030:	00100393          	li	t2,1
    1034:	00c00693          	li	a3,12
    1038:	0f000913          	li	s2,240
    103c:	000f8893          	mv	a7,t6
    1040:	00028e13          	mv	t3,t0
    1044:	00000313          	li	t1,0
    1048:	000e2783          	lw	a5,0(t3)
    104c:	00088713          	mv	a4,a7
    1050:	01e88833          	add	a6,a7,t5
    1054:	07d78263          	beq	a5,t4,10b8 <draw_grid_to_screen+0xc8>
    1058:	08fec863          	blt	t4,a5,10e8 <draw_grid_to_screen+0xf8>
    105c:	06078c63          	beqz	a5,10d4 <draw_grid_to_screen+0xe4>
    1060:	00779e63          	bne	a5,t2,107c <draw_grid_to_screen+0x8c>
    1064:	fb070793          	addi	a5,a4,-80
    1068:	00d7a023          	sw	a3,0(a5)
    106c:	00478793          	addi	a5,a5,4
    1070:	fee79ce3          	bne	a5,a4,1068 <draw_grid_to_screen+0x78>
    1074:	3c070713          	addi	a4,a4,960
    1078:	ff0716e3          	bne	a4,a6,1064 <draw_grid_to_screen+0x74>
    107c:	00130313          	addi	t1,t1,1
    1080:	004e0e13          	addi	t3,t3,4
    1084:	05088893          	addi	a7,a7,80
    1088:	fcd310e3          	bne	t1,a3,1048 <draw_grid_to_screen+0x58>
    108c:	01448493          	addi	s1,s1,20
    1090:	03028293          	addi	t0,t0,48
    1094:	01ef8fb3          	add	t6,t6,t5
    1098:	fb2492e3          	bne	s1,s2,103c <draw_grid_to_screen+0x4c>
    109c:	00c12403          	lw	s0,12(sp)
    10a0:	00812483          	lw	s1,8(sp)
    10a4:	00412903          	lw	s2,4(sp)
    10a8:	01010113          	addi	sp,sp,16
    10ac:	00008067          	ret
    10b0:	3c070713          	addi	a4,a4,960
    10b4:	fd0704e3          	beq	a4,a6,107c <draw_grid_to_screen+0x8c>
    10b8:	fb070793          	addi	a5,a4,-80
    10bc:	00a7a023          	sw	a0,0(a5)
    10c0:	00478793          	addi	a5,a5,4
    10c4:	fee79ce3          	bne	a5,a4,10bc <draw_grid_to_screen+0xcc>
    10c8:	fe9ff06f          	j	10b0 <draw_grid_to_screen+0xc0>
    10cc:	3c070713          	addi	a4,a4,960
    10d0:	fb0706e3          	beq	a4,a6,107c <draw_grid_to_screen+0x8c>
    10d4:	fb070793          	addi	a5,a4,-80
    10d8:	00c7a023          	sw	a2,0(a5)
    10dc:	00478793          	addi	a5,a5,4
    10e0:	fee79ce3          	bne	a5,a4,10d8 <draw_grid_to_screen+0xe8>
    10e4:	fe9ff06f          	j	10cc <draw_grid_to_screen+0xdc>
    10e8:	f8879ae3          	bne	a5,s0,107c <draw_grid_to_screen+0x8c>
    10ec:	fb070793          	addi	a5,a4,-80
    10f0:	00b7a023          	sw	a1,0(a5)
    10f4:	00478793          	addi	a5,a5,4
    10f8:	fee79ce3          	bne	a5,a4,10f0 <draw_grid_to_screen+0x100>
    10fc:	3c070713          	addi	a4,a4,960
    1100:	ff0716e3          	bne	a4,a6,10ec <draw_grid_to_screen+0xfc>
    1104:	00130313          	addi	t1,t1,1
    1108:	004e0e13          	addi	t3,t3,4
    110c:	05088893          	addi	a7,a7,80
    1110:	f2d31ce3          	bne	t1,a3,1048 <draw_grid_to_screen+0x58>
    1114:	f79ff06f          	j	108c <draw_grid_to_screen+0x9c>

00001118 <draw_pixel>:
    1118:	14053793          	sltiu	a5,a0,320
    111c:	02078463          	beqz	a5,1144 <draw_pixel+0x2c>
    1120:	0f05b793          	sltiu	a5,a1,240
    1124:	02078063          	beqz	a5,1144 <draw_pixel+0x2c>
    1128:	00259793          	slli	a5,a1,0x2
    112c:	00b787b3          	add	a5,a5,a1
    1130:	00679793          	slli	a5,a5,0x6
    1134:	00a787b3          	add	a5,a5,a0
    1138:	08000737          	lui	a4,0x8000
    113c:	00e787b3          	add	a5,a5,a4
    1140:	00c78023          	sb	a2,0(a5)
    1144:	00008067          	ret

00001148 <draw_screen_to_fb>:
    1148:	00002537          	lui	a0,0x2
    114c:	0004b7b7          	lui	a5,0x4b
    1150:	f4c50513          	addi	a0,a0,-180 # 1f4c <screen>
    1154:	0004b637          	lui	a2,0x4b
    1158:	3c078793          	addi	a5,a5,960 # 4b3c0 <__global_pointer+0x49344>
    115c:	00c50633          	add	a2,a0,a2
    1160:	080005b7          	lui	a1,0x8000
    1164:	00f50533          	add	a0,a0,a5
    1168:	fffb5837          	lui	a6,0xfffb5
    116c:	010607b3          	add	a5,a2,a6
    1170:	00058713          	mv	a4,a1
    1174:	0007a683          	lw	a3,0(a5)
    1178:	3c078793          	addi	a5,a5,960
    117c:	00170713          	addi	a4,a4,1 # 8000001 <_stack_end+0x7eb2661>
    1180:	fed70fa3          	sb	a3,-1(a4)
    1184:	fec798e3          	bne	a5,a2,1174 <draw_screen_to_fb+0x2c>
    1188:	00478613          	addi	a2,a5,4
    118c:	14058593          	addi	a1,a1,320 # 8000140 <_stack_end+0x7eb27a0>
    1190:	fca61ee3          	bne	a2,a0,116c <draw_screen_to_fb+0x24>
    1194:	00008067          	ret

00001198 <handle_interrupt>:
    1198:	01000793          	li	a5,16
    119c:	00f50463          	beq	a0,a5,11a4 <handle_interrupt+0xc>
    11a0:	00008067          	ret
    11a4:	fe010113          	addi	sp,sp,-32
    11a8:	040007b7          	lui	a5,0x4000
    11ac:	00112e23          	sw	ra,28(sp)
    11b0:	00812c23          	sw	s0,24(sp)
    11b4:	00912a23          	sw	s1,20(sp)
    11b8:	01212823          	sw	s2,16(sp)
    11bc:	01312623          	sw	s3,12(sp)
    11c0:	0207a023          	sw	zero,32(a5) # 4000020 <_stack_end+0x3eb2680>
    11c4:	0004d6b7          	lui	a3,0x4d
    11c8:	f6c6a703          	lw	a4,-148(a3) # 4cf6c <timeoutcount>
    11cc:	040007b7          	lui	a5,0x4000
    11d0:	00a787b3          	add	a5,a5,a0
    11d4:	00170713          	addi	a4,a4,1
    11d8:	f6e6a623          	sw	a4,-148(a3)
    11dc:	0007a783          	lw	a5,0(a5) # 4000000 <_stack_end+0x3eb2660>
    11e0:	00700713          	li	a4,7
    11e4:	00f7f793          	andi	a5,a5,15
    11e8:	fff78793          	addi	a5,a5,-1
    11ec:	04f76463          	bltu	a4,a5,1234 <handle_interrupt+0x9c>
    11f0:	0004e737          	lui	a4,0x4e
    11f4:	8d070713          	addi	a4,a4,-1840 # 4d8d0 <CSWTCH.63>
    11f8:	00279793          	slli	a5,a5,0x2
    11fc:	00f707b3          	add	a5,a4,a5
    1200:	0287a783          	lw	a5,40(a5)
    1204:	00300613          	li	a2,3
    1208:	fff78713          	addi	a4,a5,-1
    120c:	02e66463          	bltu	a2,a4,1234 <handle_interrupt+0x9c>
    1210:	000026b7          	lui	a3,0x2
    1214:	87c6a703          	lw	a4,-1924(a3) # 187c <dir>
    1218:	00100593          	li	a1,1
    121c:	4cb70063          	beq	a4,a1,16dc <handle_interrupt+0x544>
    1220:	00200513          	li	a0,2
    1224:	4ea70063          	beq	a4,a0,1704 <handle_interrupt+0x56c>
    1228:	4ec71263          	bne	a4,a2,170c <handle_interrupt+0x574>
    122c:	00400713          	li	a4,4
    1230:	4ae79a63          	bne	a5,a4,16e4 <handle_interrupt+0x54c>
    1234:	dacff0ef          	jal	7e0 <move_snake>
    1238:	0004d937          	lui	s2,0x4d
    123c:	f5c92583          	lw	a1,-164(s2) # 4cf5c <headX>
    1240:	00b00793          	li	a5,11
    1244:	0004d437          	lui	s0,0x4d
    1248:	3eb7fe63          	bgeu	a5,a1,1644 <handle_interrupt+0x4ac>
    124c:	00100793          	li	a5,1
    1250:	f6f42023          	sw	a5,-160(s0) # 4cf60 <gameover>
    1254:	000024b7          	lui	s1,0x2
    1258:	8804a703          	lw	a4,-1920(s1) # 1880 <tailLength>
    125c:	04e05a63          	blez	a4,12b0 <handle_interrupt+0x118>
    1260:	0004d6b7          	lui	a3,0x4d
    1264:	000027b7          	lui	a5,0x2
    1268:	88c78793          	addi	a5,a5,-1908 # 188c <tailX>
    126c:	f586a883          	lw	a7,-168(a3) # 4cf58 <headY>
    1270:	00271693          	slli	a3,a4,0x2
    1274:	24078813          	addi	a6,a5,576
    1278:	00f686b3          	add	a3,a3,a5
    127c:	00000513          	li	a0,0
    1280:	0007a603          	lw	a2,0(a5)
    1284:	00478793          	addi	a5,a5,4
    1288:	00c59a63          	bne	a1,a2,129c <handle_interrupt+0x104>
    128c:	00082603          	lw	a2,0(a6) # fffb5000 <_stack_end+0xffe67660>
    1290:	41160633          	sub	a2,a2,a7
    1294:	00163613          	seqz	a2,a2
    1298:	00c56533          	or	a0,a0,a2
    129c:	00480813          	addi	a6,a6,4
    12a0:	fef690e3          	bne	a3,a5,1280 <handle_interrupt+0xe8>
    12a4:	00050663          	beqz	a0,12b0 <handle_interrupt+0x118>
    12a8:	00100793          	li	a5,1
    12ac:	f6f42023          	sw	a5,-160(s0)
    12b0:	0004d9b7          	lui	s3,0x4d
    12b4:	f549a783          	lw	a5,-172(s3) # 4cf54 <fruitX>
    12b8:	38b78e63          	beq	a5,a1,1654 <handle_interrupt+0x4bc>
    12bc:	f6042783          	lw	a5,-160(s0)
    12c0:	34079c63          	bnez	a5,1618 <handle_interrupt+0x480>
    12c4:	000027b7          	lui	a5,0x2
    12c8:	88c78793          	addi	a5,a5,-1908 # 188c <tailX>
    12cc:	4807a023          	sw	zero,1152(a5)
    12d0:	4807a223          	sw	zero,1156(a5)
    12d4:	4807a423          	sw	zero,1160(a5)
    12d8:	4807a623          	sw	zero,1164(a5)
    12dc:	4807a823          	sw	zero,1168(a5)
    12e0:	4807aa23          	sw	zero,1172(a5)
    12e4:	4807ac23          	sw	zero,1176(a5)
    12e8:	4807ae23          	sw	zero,1180(a5)
    12ec:	4a07a023          	sw	zero,1184(a5)
    12f0:	4a07a223          	sw	zero,1188(a5)
    12f4:	4a07a423          	sw	zero,1192(a5)
    12f8:	4a07a623          	sw	zero,1196(a5)
    12fc:	4a07a823          	sw	zero,1200(a5)
    1300:	4a07aa23          	sw	zero,1204(a5)
    1304:	4a07ac23          	sw	zero,1208(a5)
    1308:	4a07ae23          	sw	zero,1212(a5)
    130c:	4c07a023          	sw	zero,1216(a5)
    1310:	4c07a223          	sw	zero,1220(a5)
    1314:	4c07a423          	sw	zero,1224(a5)
    1318:	4c07a623          	sw	zero,1228(a5)
    131c:	4c07a823          	sw	zero,1232(a5)
    1320:	4c07aa23          	sw	zero,1236(a5)
    1324:	4c07ac23          	sw	zero,1240(a5)
    1328:	4c07ae23          	sw	zero,1244(a5)
    132c:	4e07a023          	sw	zero,1248(a5)
    1330:	4e07a223          	sw	zero,1252(a5)
    1334:	4e07a423          	sw	zero,1256(a5)
    1338:	4e07a623          	sw	zero,1260(a5)
    133c:	4e07a823          	sw	zero,1264(a5)
    1340:	4e07aa23          	sw	zero,1268(a5)
    1344:	4e07ac23          	sw	zero,1272(a5)
    1348:	4e07ae23          	sw	zero,1276(a5)
    134c:	5007a023          	sw	zero,1280(a5)
    1350:	5007a223          	sw	zero,1284(a5)
    1354:	5007a423          	sw	zero,1288(a5)
    1358:	5007a623          	sw	zero,1292(a5)
    135c:	5007a823          	sw	zero,1296(a5)
    1360:	5007aa23          	sw	zero,1300(a5)
    1364:	5007ac23          	sw	zero,1304(a5)
    1368:	5007ae23          	sw	zero,1308(a5)
    136c:	5207a023          	sw	zero,1312(a5)
    1370:	5207a223          	sw	zero,1316(a5)
    1374:	5207a423          	sw	zero,1320(a5)
    1378:	5207a623          	sw	zero,1324(a5)
    137c:	5207a823          	sw	zero,1328(a5)
    1380:	5207aa23          	sw	zero,1332(a5)
    1384:	5207ac23          	sw	zero,1336(a5)
    1388:	5207ae23          	sw	zero,1340(a5)
    138c:	5407a023          	sw	zero,1344(a5)
    1390:	5407a223          	sw	zero,1348(a5)
    1394:	5407a423          	sw	zero,1352(a5)
    1398:	5407a623          	sw	zero,1356(a5)
    139c:	5407a823          	sw	zero,1360(a5)
    13a0:	5407aa23          	sw	zero,1364(a5)
    13a4:	5407ac23          	sw	zero,1368(a5)
    13a8:	5407ae23          	sw	zero,1372(a5)
    13ac:	5607a023          	sw	zero,1376(a5)
    13b0:	5607a223          	sw	zero,1380(a5)
    13b4:	5607a423          	sw	zero,1384(a5)
    13b8:	5607a623          	sw	zero,1388(a5)
    13bc:	5607a823          	sw	zero,1392(a5)
    13c0:	5607aa23          	sw	zero,1396(a5)
    13c4:	5607ac23          	sw	zero,1400(a5)
    13c8:	5607ae23          	sw	zero,1404(a5)
    13cc:	5807a023          	sw	zero,1408(a5)
    13d0:	5807a223          	sw	zero,1412(a5)
    13d4:	5807a423          	sw	zero,1416(a5)
    13d8:	5807a623          	sw	zero,1420(a5)
    13dc:	5807a823          	sw	zero,1424(a5)
    13e0:	5807aa23          	sw	zero,1428(a5)
    13e4:	5807ac23          	sw	zero,1432(a5)
    13e8:	5807ae23          	sw	zero,1436(a5)
    13ec:	5a07a023          	sw	zero,1440(a5)
    13f0:	5a07a223          	sw	zero,1444(a5)
    13f4:	5a07a423          	sw	zero,1448(a5)
    13f8:	5a07a623          	sw	zero,1452(a5)
    13fc:	5a07a823          	sw	zero,1456(a5)
    1400:	5a07aa23          	sw	zero,1460(a5)
    1404:	5a07ac23          	sw	zero,1464(a5)
    1408:	5a07ae23          	sw	zero,1468(a5)
    140c:	5c07a023          	sw	zero,1472(a5)
    1410:	5c07a223          	sw	zero,1476(a5)
    1414:	5c07a423          	sw	zero,1480(a5)
    1418:	5c07a623          	sw	zero,1484(a5)
    141c:	5c07a823          	sw	zero,1488(a5)
    1420:	5c07aa23          	sw	zero,1492(a5)
    1424:	5c07ac23          	sw	zero,1496(a5)
    1428:	5c07ae23          	sw	zero,1500(a5)
    142c:	5e07a023          	sw	zero,1504(a5)
    1430:	5e07a223          	sw	zero,1508(a5)
    1434:	5e07a423          	sw	zero,1512(a5)
    1438:	5e07a623          	sw	zero,1516(a5)
    143c:	5e07a823          	sw	zero,1520(a5)
    1440:	5e07aa23          	sw	zero,1524(a5)
    1444:	5e07ac23          	sw	zero,1528(a5)
    1448:	5e07ae23          	sw	zero,1532(a5)
    144c:	6007a023          	sw	zero,1536(a5)
    1450:	6007a223          	sw	zero,1540(a5)
    1454:	6007a423          	sw	zero,1544(a5)
    1458:	6007a623          	sw	zero,1548(a5)
    145c:	6007a823          	sw	zero,1552(a5)
    1460:	6007aa23          	sw	zero,1556(a5)
    1464:	6007ac23          	sw	zero,1560(a5)
    1468:	6007ae23          	sw	zero,1564(a5)
    146c:	6207a023          	sw	zero,1568(a5)
    1470:	6207a223          	sw	zero,1572(a5)
    1474:	6207a423          	sw	zero,1576(a5)
    1478:	6207a623          	sw	zero,1580(a5)
    147c:	6207a823          	sw	zero,1584(a5)
    1480:	6207aa23          	sw	zero,1588(a5)
    1484:	6207ac23          	sw	zero,1592(a5)
    1488:	6207ae23          	sw	zero,1596(a5)
    148c:	6407a023          	sw	zero,1600(a5)
    1490:	6407a223          	sw	zero,1604(a5)
    1494:	6407a423          	sw	zero,1608(a5)
    1498:	6407a623          	sw	zero,1612(a5)
    149c:	6407a823          	sw	zero,1616(a5)
    14a0:	6407aa23          	sw	zero,1620(a5)
    14a4:	6407ac23          	sw	zero,1624(a5)
    14a8:	6407ae23          	sw	zero,1628(a5)
    14ac:	6607a023          	sw	zero,1632(a5)
    14b0:	6607a223          	sw	zero,1636(a5)
    14b4:	6607a423          	sw	zero,1640(a5)
    14b8:	6607a623          	sw	zero,1644(a5)
    14bc:	6607a823          	sw	zero,1648(a5)
    14c0:	6607aa23          	sw	zero,1652(a5)
    14c4:	6607ac23          	sw	zero,1656(a5)
    14c8:	6607ae23          	sw	zero,1660(a5)
    14cc:	6807a023          	sw	zero,1664(a5)
    14d0:	6807a223          	sw	zero,1668(a5)
    14d4:	6807a423          	sw	zero,1672(a5)
    14d8:	6807a623          	sw	zero,1676(a5)
    14dc:	f549a683          	lw	a3,-172(s3)
    14e0:	f5c92583          	lw	a1,-164(s2)
    14e4:	0004d537          	lui	a0,0x4d
    14e8:	f5052803          	lw	a6,-176(a0) # 4cf50 <fruitY>
    14ec:	00169613          	slli	a2,a3,0x1
    14f0:	0004d537          	lui	a0,0x4d
    14f4:	00d60633          	add	a2,a2,a3
    14f8:	f5852503          	lw	a0,-168(a0) # 4cf58 <headY>
    14fc:	00159693          	slli	a3,a1,0x1
    1500:	00b686b3          	add	a3,a3,a1
    1504:	00261613          	slli	a2,a2,0x2
    1508:	01060633          	add	a2,a2,a6
    150c:	00269693          	slli	a3,a3,0x2
    1510:	00261613          	slli	a2,a2,0x2
    1514:	00a686b3          	add	a3,a3,a0
    1518:	6807a823          	sw	zero,1680(a5)
    151c:	6807aa23          	sw	zero,1684(a5)
    1520:	6807ac23          	sw	zero,1688(a5)
    1524:	6807ae23          	sw	zero,1692(a5)
    1528:	6a07a023          	sw	zero,1696(a5)
    152c:	6a07a223          	sw	zero,1700(a5)
    1530:	6a07a423          	sw	zero,1704(a5)
    1534:	6a07a623          	sw	zero,1708(a5)
    1538:	6a07a823          	sw	zero,1712(a5)
    153c:	6a07aa23          	sw	zero,1716(a5)
    1540:	6a07ac23          	sw	zero,1720(a5)
    1544:	6a07ae23          	sw	zero,1724(a5)
    1548:	00c78633          	add	a2,a5,a2
    154c:	00300593          	li	a1,3
    1550:	00269693          	slli	a3,a3,0x2
    1554:	48b62023          	sw	a1,1152(a2) # 4b480 <__global_pointer+0x49404>
    1558:	00d786b3          	add	a3,a5,a3
    155c:	00100613          	li	a2,1
    1560:	48c6a023          	sw	a2,1152(a3)
    1564:	04e05463          	blez	a4,15ac <handle_interrupt+0x414>
    1568:	00271713          	slli	a4,a4,0x2
    156c:	00e78733          	add	a4,a5,a4
    1570:	00078613          	mv	a2,a5
    1574:	24078593          	addi	a1,a5,576
    1578:	00200813          	li	a6,2
    157c:	00062503          	lw	a0,0(a2)
    1580:	0005a883          	lw	a7,0(a1)
    1584:	00460613          	addi	a2,a2,4
    1588:	00151693          	slli	a3,a0,0x1
    158c:	00a686b3          	add	a3,a3,a0
    1590:	00269693          	slli	a3,a3,0x2
    1594:	011686b3          	add	a3,a3,a7
    1598:	00269693          	slli	a3,a3,0x2
    159c:	00d786b3          	add	a3,a5,a3
    15a0:	4906a023          	sw	a6,1152(a3)
    15a4:	00458593          	addi	a1,a1,4
    15a8:	fce61ae3          	bne	a2,a4,157c <handle_interrupt+0x3e4>
    15ac:	a45ff0ef          	jal	ff0 <draw_grid_to_screen>
    15b0:	00002537          	lui	a0,0x2
    15b4:	0004b7b7          	lui	a5,0x4b
    15b8:	f4c50513          	addi	a0,a0,-180 # 1f4c <screen>
    15bc:	0004b637          	lui	a2,0x4b
    15c0:	3c078793          	addi	a5,a5,960 # 4b3c0 <__global_pointer+0x49344>
    15c4:	00c50633          	add	a2,a0,a2
    15c8:	080005b7          	lui	a1,0x8000
    15cc:	00f50533          	add	a0,a0,a5
    15d0:	fffb5837          	lui	a6,0xfffb5
    15d4:	010607b3          	add	a5,a2,a6
    15d8:	00058713          	mv	a4,a1
    15dc:	0007a683          	lw	a3,0(a5)
    15e0:	3c078793          	addi	a5,a5,960
    15e4:	00170713          	addi	a4,a4,1
    15e8:	fed70fa3          	sb	a3,-1(a4)
    15ec:	fec798e3          	bne	a5,a2,15dc <handle_interrupt+0x444>
    15f0:	00460613          	addi	a2,a2,4 # 4b004 <__global_pointer+0x48f88>
    15f4:	14058593          	addi	a1,a1,320 # 8000140 <_stack_end+0x7eb27a0>
    15f8:	fcc51ee3          	bne	a0,a2,15d4 <handle_interrupt+0x43c>
    15fc:	01c12083          	lw	ra,28(sp)
    1600:	01812403          	lw	s0,24(sp)
    1604:	01412483          	lw	s1,20(sp)
    1608:	01012903          	lw	s2,16(sp)
    160c:	00c12983          	lw	s3,12(sp)
    1610:	02010113          	addi	sp,sp,32
    1614:	00008067          	ret
    1618:	040007b7          	lui	a5,0x4000
    161c:	0247a703          	lw	a4,36(a5) # 4000024 <_stack_end+0x3eb2684>
    1620:	01c12083          	lw	ra,28(sp)
    1624:	01812403          	lw	s0,24(sp)
    1628:	ffe77713          	andi	a4,a4,-2
    162c:	02e7a223          	sw	a4,36(a5)
    1630:	01412483          	lw	s1,20(sp)
    1634:	01012903          	lw	s2,16(sp)
    1638:	00c12983          	lw	s3,12(sp)
    163c:	02010113          	addi	sp,sp,32
    1640:	00008067          	ret
    1644:	0004d737          	lui	a4,0x4d
    1648:	f5872703          	lw	a4,-168(a4) # 4cf58 <headY>
    164c:	c0e7e0e3          	bltu	a5,a4,124c <handle_interrupt+0xb4>
    1650:	c05ff06f          	j	1254 <handle_interrupt+0xbc>
    1654:	0004d6b7          	lui	a3,0x4d
    1658:	0004d7b7          	lui	a5,0x4d
    165c:	f586a683          	lw	a3,-168(a3) # 4cf58 <headY>
    1660:	f507a783          	lw	a5,-176(a5) # 4cf50 <fruitY>
    1664:	c4f69ce3          	bne	a3,a5,12bc <handle_interrupt+0x124>
    1668:	b68ff0ef          	jal	9d0 <new_fruit_pos>
    166c:	0004d6b7          	lui	a3,0x4d
    1670:	f4c6a783          	lw	a5,-180(a3) # 4cf4c <score>
    1674:	00900613          	li	a2,9
    1678:	00000713          	li	a4,0
    167c:	00178793          	addi	a5,a5,1
    1680:	f4f6a623          	sw	a5,-180(a3)
    1684:	00f66c63          	bltu	a2,a5,169c <handle_interrupt+0x504>
    1688:	0004e737          	lui	a4,0x4e
    168c:	8d070713          	addi	a4,a4,-1840 # 4d8d0 <CSWTCH.63>
    1690:	00279793          	slli	a5,a5,0x2
    1694:	00f707b3          	add	a5,a4,a5
    1698:	0007a703          	lw	a4,0(a5)
    169c:	040007b7          	lui	a5,0x4000
    16a0:	06e7a023          	sw	a4,96(a5) # 4000060 <_stack_end+0x3eb26c0>
    16a4:	8804a703          	lw	a4,-1920(s1)
    16a8:	08f00793          	li	a5,143
    16ac:	c0e7c8e3          	blt	a5,a4,12bc <handle_interrupt+0x124>
    16b0:	000027b7          	lui	a5,0x2
    16b4:	88c78793          	addi	a5,a5,-1908 # 188c <tailX>
    16b8:	0007a603          	lw	a2,0(a5)
    16bc:	2407a683          	lw	a3,576(a5)
    16c0:	00271593          	slli	a1,a4,0x2
    16c4:	00b787b3          	add	a5,a5,a1
    16c8:	00170713          	addi	a4,a4,1
    16cc:	00c7a023          	sw	a2,0(a5)
    16d0:	24d7a023          	sw	a3,576(a5)
    16d4:	88e4a023          	sw	a4,-1920(s1)
    16d8:	be5ff06f          	j	12bc <handle_interrupt+0x124>
    16dc:	00200713          	li	a4,2
    16e0:	b4e78ae3          	beq	a5,a4,1234 <handle_interrupt+0x9c>
    16e4:	86f6ae23          	sw	a5,-1924(a3)
    16e8:	0004d937          	lui	s2,0x4d
    16ec:	8f4ff0ef          	jal	7e0 <move_snake>
    16f0:	f5c92583          	lw	a1,-164(s2) # 4cf5c <headX>
    16f4:	00b00793          	li	a5,11
    16f8:	0004d437          	lui	s0,0x4d
    16fc:	b4b7e8e3          	bltu	a5,a1,124c <handle_interrupt+0xb4>
    1700:	f45ff06f          	j	1644 <handle_interrupt+0x4ac>
    1704:	feb790e3          	bne	a5,a1,16e4 <handle_interrupt+0x54c>
    1708:	b2dff06f          	j	1234 <handle_interrupt+0x9c>
    170c:	ffd78613          	addi	a2,a5,-3
    1710:	fc061ae3          	bnez	a2,16e4 <handle_interrupt+0x54c>
    1714:	ffc70713          	addi	a4,a4,-4
    1718:	b0070ee3          	beqz	a4,1234 <handle_interrupt+0x9c>
    171c:	fc9ff06f          	j	16e4 <handle_interrupt+0x54c>

00001720 <set_timer>:
    1720:	000077b7          	lui	a5,0x7
    1724:	53078793          	addi	a5,a5,1328 # 7530 <__global_pointer+0x54b4>
    1728:	02f50533          	mul	a0,a0,a5
    172c:	04000737          	lui	a4,0x4000
    1730:	01051693          	slli	a3,a0,0x10
    1734:	0106d693          	srli	a3,a3,0x10
    1738:	01055513          	srli	a0,a0,0x10
    173c:	02d72423          	sw	a3,40(a4) # 4000028 <_stack_end+0x3eb2688>
    1740:	02a72623          	sw	a0,44(a4)
    1744:	00008067          	ret

00001748 <gameinit>:
    1748:	000027b7          	lui	a5,0x2
    174c:	8807a603          	lw	a2,-1920(a5) # 1880 <tailLength>
    1750:	ff010113          	addi	sp,sp,-16
    1754:	00600693          	li	a3,6
    1758:	0004d737          	lui	a4,0x4d
    175c:	0004d7b7          	lui	a5,0x4d
    1760:	00112623          	sw	ra,12(sp)
    1764:	f4d72e23          	sw	a3,-164(a4) # 4cf5c <headX>
    1768:	f4d7ac23          	sw	a3,-168(a5) # 4cf58 <headY>
    176c:	02c05663          	blez	a2,1798 <gameinit+0x50>
    1770:	000027b7          	lui	a5,0x2
    1774:	88c78793          	addi	a5,a5,-1908 # 188c <tailX>
    1778:	00261613          	slli	a2,a2,0x2
    177c:	00f60633          	add	a2,a2,a5
    1780:	24078713          	addi	a4,a5,576
    1784:	00d7a023          	sw	a3,0(a5)
    1788:	00d72023          	sw	a3,0(a4)
    178c:	00478793          	addi	a5,a5,4
    1790:	00470713          	addi	a4,a4,4
    1794:	fec798e3          	bne	a5,a2,1784 <gameinit+0x3c>
    1798:	a38ff0ef          	jal	9d0 <new_fruit_pos>
    179c:	0000c6b7          	lui	a3,0xc
    17a0:	040007b7          	lui	a5,0x4000
    17a4:	38068693          	addi	a3,a3,896 # c380 <__global_pointer+0xa304>
    17a8:	02d7a423          	sw	a3,40(a5) # 4000028 <_stack_end+0x3eb2688>
    17ac:	1c900693          	li	a3,457
    17b0:	02d7a623          	sw	a3,44(a5)
    17b4:	00c12083          	lw	ra,12(sp)
    17b8:	02478793          	addi	a5,a5,36
    17bc:	00700713          	li	a4,7
    17c0:	00e7a023          	sw	a4,0(a5)
    17c4:	01010113          	addi	sp,sp,16
    17c8:	9a9fe06f          	j	170 <enable_interrupt>

000017cc <main>:
    17cc:	ff010113          	addi	sp,sp,-16
    17d0:	00112623          	sw	ra,12(sp)
    17d4:	f75ff0ef          	jal	1748 <gameinit>
    17d8:	00c12083          	lw	ra,12(sp)
    17dc:	00000513          	li	a0,0
    17e0:	01010113          	addi	sp,sp,16
    17e4:	00008067          	ret
